target datalayout = "e-m:e-p270:32:32-p271:32:32-p272:64:64-i64:64-i128:128-f80:128-n8:16:32:64-S128"
target triple = "x86_64-unknown-linux-gnu"

%"struct.OpenImageIO_v2_6_0::TypeDesc" = type { i8, i8, i8, i8, i32 }
%"class.OpenImageIO_v2_6_0::ImageOutput" = type { ptr, %"class.OpenImageIO_v2_6_0::ImageSpec", %"class.std::unique_ptr.12" }
%"class.OpenImageIO_v2_6_0::ImageSpec" = type { i32, i32, i32, i32, i32, i32, i32, i32, i32, i32, i32, i32, i32, i32, i32, i32, %"struct.OpenImageIO_v2_6_0::TypeDesc", %"class.std::vector", %"class.std::vector.2", i32, i32, i8, %"class.OpenImageIO_v2_6_0::ParamValueList" }
%"class.std::vector" = type { %"struct.std::_Vector_base" }
%"struct.std::_Vector_base" = type { %"struct.std::_Vector_base<OpenImageIO_v2_6_0::TypeDesc, std::allocator<OpenImageIO_v2_6_0::TypeDesc>>::_Vector_impl" }
%"struct.std::_Vector_base<OpenImageIO_v2_6_0::TypeDesc, std::allocator<OpenImageIO_v2_6_0::TypeDesc>>::_Vector_impl" = type { %"struct.std::_Vector_base<OpenImageIO_v2_6_0::TypeDesc, std::allocator<OpenImageIO_v2_6_0::TypeDesc>>::_Vector_impl_data" }
%"struct.std::_Vector_base<OpenImageIO_v2_6_0::TypeDesc, std::allocator<OpenImageIO_v2_6_0::TypeDesc>>::_Vector_impl_data" = type { ptr, ptr, ptr }
%"class.std::vector.2" = type { %"struct.std::_Vector_base.3" }
%"struct.std::_Vector_base.3" = type { %"struct.std::_Vector_base<std::__cxx11::basic_string<char>, std::allocator<std::__cxx11::basic_string<char>>>::_Vector_impl" }
%"struct.std::_Vector_base<std::__cxx11::basic_string<char>, std::allocator<std::__cxx11::basic_string<char>>>::_Vector_impl" = type { %"struct.std::_Vector_base<std::__cxx11::basic_string<char>, std::allocator<std::__cxx11::basic_string<char>>>::_Vector_impl_data" }
%"struct.std::_Vector_base<std::__cxx11::basic_string<char>, std::allocator<std::__cxx11::basic_string<char>>>::_Vector_impl_data" = type { ptr, ptr, ptr }
%"class.OpenImageIO_v2_6_0::ParamValueList" = type { %"class.std::vector.7" }
%"class.std::vector.7" = type { %"struct.std::_Vector_base.8" }
%"struct.std::_Vector_base.8" = type { %"struct.std::_Vector_base<OpenImageIO_v2_6_0::ParamValue, std::allocator<OpenImageIO_v2_6_0::ParamValue>>::_Vector_impl" }
%"struct.std::_Vector_base<OpenImageIO_v2_6_0::ParamValue, std::allocator<OpenImageIO_v2_6_0::ParamValue>>::_Vector_impl" = type { %"struct.std::_Vector_base<OpenImageIO_v2_6_0::ParamValue, std::allocator<OpenImageIO_v2_6_0::ParamValue>>::_Vector_impl_data" }
%"struct.std::_Vector_base<OpenImageIO_v2_6_0::ParamValue, std::allocator<OpenImageIO_v2_6_0::ParamValue>>::_Vector_impl_data" = type { ptr, ptr, ptr }
%"class.std::unique_ptr.12" = type { %"struct.std::__uniq_ptr_data.13" }
%"struct.std::__uniq_ptr_data.13" = type { %"class.std::__uniq_ptr_impl.14" }
%"class.std::__uniq_ptr_impl.14" = type { %"class.std::tuple.15" }
%"class.std::tuple.15" = type { %"struct.std::_Tuple_impl.16" }
%"struct.std::_Tuple_impl.16" = type { %"struct.std::_Tuple_impl.17", %"struct.std::_Head_base.19" }
%"struct.std::_Tuple_impl.17" = type { %"struct.std::_Head_base.18" }
%"struct.std::_Head_base.18" = type { ptr }
%"struct.std::_Head_base.19" = type { ptr }

; Function Attrs: mustprogress nounwind uwtable
define linkonce_odr noundef i64 @_ZNK18OpenImageIO_v2_6_08TypeDesc11elementsizeEv(ptr noundef nonnull align 4 dereferenceable(8) %this) #4 comdat align 2 {
entry:
  %this.addr = alloca ptr, align 8
  store ptr %this, ptr %this.addr, align 8
  %this1 = load ptr, ptr %this.addr, align 8
  %aggregate = getelementptr inbounds %"struct.OpenImageIO_v2_6_0::TypeDesc", ptr %this1, i32 0, i32 1
  %0 = load i8, ptr %aggregate, align 1
  %conv = zext i8 %0 to i64
  %call = call noundef i64 @_ZNK18OpenImageIO_v2_6_08TypeDesc8basesizeEv(ptr noundef nonnull align 4 dereferenceable(8) %this1) #3
  %mul = mul i64 %conv, %call
  ret i64 %mul
}

; Function Attrs: mustprogress nounwind uwtable
define linkonce_odr void @_ZN18OpenImageIO_v2_6_09ImageSpec11auto_strideERlS1_S1_liii(ptr noundef nonnull align 8 dereferenceable(8) %xstride, ptr noundef nonnull align 8 dereferenceable(8) %ystride, ptr noundef nonnull align 8 dereferenceable(8) %zstride, i64 noundef %channelsize, i32 noundef %nchannels, i32 noundef %width, i32 noundef %height) #4 comdat align 2 {
entry:
  %xstride.addr = alloca ptr, align 8
  %ystride.addr = alloca ptr, align 8
  %zstride.addr = alloca ptr, align 8
  %channelsize.addr = alloca i64, align 8
  %nchannels.addr = alloca i32, align 4
  %width.addr = alloca i32, align 4
  %height.addr = alloca i32, align 4
  store ptr %xstride, ptr %xstride.addr, align 8
  store ptr %ystride, ptr %ystride.addr, align 8
  store ptr %zstride, ptr %zstride.addr, align 8
  store i64 %channelsize, ptr %channelsize.addr, align 8
  store i32 %nchannels, ptr %nchannels.addr, align 4
  store i32 %width, ptr %width.addr, align 4
  store i32 %height, ptr %height.addr, align 4
  %0 = load ptr, ptr %xstride.addr, align 8
  %1 = load i64, ptr %0, align 8
  %cmp = icmp eq i64 %1, -9223372036854775808
  br i1 %cmp, label %if.then, label %if.end

if.then:                                          ; preds = %entry
  %2 = load i32, ptr %nchannels.addr, align 4
  %conv = sext i32 %2 to i64
  %3 = load i64, ptr %channelsize.addr, align 8
  %mul = mul nsw i64 %conv, %3
  %4 = load ptr, ptr %xstride.addr, align 8
  store i64 %mul, ptr %4, align 8
  br label %if.end

if.end:                                           ; preds = %if.then, %entry
  %5 = load ptr, ptr %ystride.addr, align 8
  %6 = load i64, ptr %5, align 8
  %cmp1 = icmp eq i64 %6, -9223372036854775808
  br i1 %cmp1, label %if.then2, label %if.end5

if.then2:                                         ; preds = %if.end
  %7 = load ptr, ptr %xstride.addr, align 8
  %8 = load i64, ptr %7, align 8
  %9 = load i32, ptr %width.addr, align 4
  %conv3 = sext i32 %9 to i64
  %mul4 = mul nsw i64 %8, %conv3
  %10 = load ptr, ptr %ystride.addr, align 8
  store i64 %mul4, ptr %10, align 8
  br label %if.end5

if.end5:                                          ; preds = %if.then2, %if.end
  %11 = load ptr, ptr %zstride.addr, align 8
  %12 = load i64, ptr %11, align 8
  %cmp6 = icmp eq i64 %12, -9223372036854775808
  br i1 %cmp6, label %if.then7, label %if.end10

if.then7:                                         ; preds = %if.end5
  %13 = load ptr, ptr %ystride.addr, align 8
  %14 = load i64, ptr %13, align 8
  %15 = load i32, ptr %height.addr, align 4
  %conv8 = sext i32 %15 to i64
  %mul9 = mul nsw i64 %14, %conv8
  %16 = load ptr, ptr %zstride.addr, align 8
  store i64 %mul9, ptr %16, align 8
  br label %if.end10

if.end10:                                         ; preds = %if.then7, %if.end5
  ret void
}

; Function Attrs: mustprogress nounwind uwtable
define linkonce_odr noundef i64 @_ZNK18OpenImageIO_v2_6_08TypeDesc4sizeEv(ptr noundef nonnull align 4 dereferenceable(8) %this) #4 comdat align 2 {
entry:
  %this.addr = alloca ptr, align 8
  %a = alloca i64, align 8
  store ptr %this, ptr %this.addr, align 8
  %this1 = load ptr, ptr %this.addr, align 8
  %arraylen = getelementptr inbounds %"struct.OpenImageIO_v2_6_0::TypeDesc", ptr %this1, i32 0, i32 4
  %0 = load i32, ptr %arraylen, align 4
  %cmp = icmp sgt i32 %0, 0
  br i1 %cmp, label %cond.true, label %cond.false

cond.true:                                        ; preds = %entry
  %arraylen2 = getelementptr inbounds %"struct.OpenImageIO_v2_6_0::TypeDesc", ptr %this1, i32 0, i32 4
  %1 = load i32, ptr %arraylen2, align 4
  br label %cond.end

cond.false:                                       ; preds = %entry
  br label %cond.end

cond.end:                                         ; preds = %cond.false, %cond.true
  %cond = phi i32 [ %1, %cond.true ], [ 1, %cond.false ]
  %conv = sext i32 %cond to i64
  store i64 %conv, ptr %a, align 8
  %2 = load i64, ptr %a, align 8
  %call = call noundef i64 @_ZNK18OpenImageIO_v2_6_08TypeDesc11elementsizeEv(ptr noundef nonnull align 4 dereferenceable(8) %this1) #3
  %mul = mul i64 %2, %call
  ret i64 %mul
}

; Function Attrs: mustprogress nounwind uwtable
define linkonce_odr noundef zeroext i1 @_ZNK18OpenImageIO_v2_6_08TypeDesc8is_arrayEv(ptr noundef nonnull align 4 dereferenceable(8) %this) #4 comdat align 2 {
entry:
  %this.addr = alloca ptr, align 8
  store ptr %this, ptr %this.addr, align 8
  %this1 = load ptr, ptr %this.addr, align 8
  %arraylen = getelementptr inbounds %"struct.OpenImageIO_v2_6_0::TypeDesc", ptr %this1, i32 0, i32 4
  %0 = load i32, ptr %arraylen, align 4
  %cmp = icmp ne i32 %0, 0
  ret i1 %cmp
}

; Function Attrs: mustprogress nounwind uwtable
define linkonce_odr void @_ZN18OpenImageIO_v2_6_09ImageSpec11auto_strideERlS1_S1_NS_8TypeDescEiii(ptr noundef nonnull align 8 dereferenceable(8) %xstride, ptr noundef nonnull align 8 dereferenceable(8) %ystride, ptr noundef nonnull align 8 dereferenceable(8) %zstride, ptr noundef %format, i32 noundef %nchannels, i32 noundef %width, i32 noundef %height) #4 comdat align 2 {
entry:
  %xstride.addr = alloca ptr, align 8
  %ystride.addr = alloca ptr, align 8
  %zstride.addr = alloca ptr, align 8
  %format.indirect_addr = alloca ptr, align 8
  %nchannels.addr = alloca i32, align 4
  %width.addr = alloca i32, align 4
  %height.addr = alloca i32, align 4
  store ptr %xstride, ptr %xstride.addr, align 8
  store ptr %ystride, ptr %ystride.addr, align 8
  store ptr %zstride, ptr %zstride.addr, align 8
  store ptr %format, ptr %format.indirect_addr, align 8
  store i32 %nchannels, ptr %nchannels.addr, align 4
  store i32 %width, ptr %width.addr, align 4
  store i32 %height, ptr %height.addr, align 4
  %0 = load ptr, ptr %xstride.addr, align 8
  %1 = load ptr, ptr %ystride.addr, align 8
  %2 = load ptr, ptr %zstride.addr, align 8
  %call = call noundef i64 @_ZNK18OpenImageIO_v2_6_08TypeDesc4sizeEv(ptr noundef nonnull align 4 dereferenceable(8) %format) #3
  %3 = load i32, ptr %nchannels.addr, align 4
  %4 = load i32, ptr %width.addr, align 4
  %5 = load i32, ptr %height.addr, align 4
  call void @_ZN18OpenImageIO_v2_6_09ImageSpec11auto_strideERlS1_S1_liii(ptr noundef nonnull align 8 dereferenceable(8) %0, ptr noundef nonnull align 8 dereferenceable(8) %1, ptr noundef nonnull align 8 dereferenceable(8) %2, i64 noundef %call, i32 noundef %3, i32 noundef %4, i32 noundef %5) #3
  ret void
}

; Function Attrs: mustprogress nounwind uwtable
define linkonce_odr void @_ZN18OpenImageIO_v2_6_08TypeDescC2ERKS0_(ptr noundef nonnull align 4 dereferenceable(8) %this, ptr noundef nonnull align 4 dereferenceable(8) %t) unnamed_addr #4 comdat align 2 {
entry:
  %this.addr = alloca ptr, align 8
  %t.addr = alloca ptr, align 8
  store ptr %this, ptr %this.addr, align 8
  store ptr %t, ptr %t.addr, align 8
  %this1 = load ptr, ptr %this.addr, align 8
  %basetype = getelementptr inbounds %"struct.OpenImageIO_v2_6_0::TypeDesc", ptr %this1, i32 0, i32 0
  %0 = load ptr, ptr %t.addr, align 8
  %basetype2 = getelementptr inbounds %"struct.OpenImageIO_v2_6_0::TypeDesc", ptr %0, i32 0, i32 0
  %1 = load i8, ptr %basetype2, align 4
  store i8 %1, ptr %basetype, align 4
  %aggregate = getelementptr inbounds %"struct.OpenImageIO_v2_6_0::TypeDesc", ptr %this1, i32 0, i32 1
  %2 = load ptr, ptr %t.addr, align 8
  %aggregate3 = getelementptr inbounds %"struct.OpenImageIO_v2_6_0::TypeDesc", ptr %2, i32 0, i32 1
  %3 = load i8, ptr %aggregate3, align 1
  store i8 %3, ptr %aggregate, align 1
  %vecsemantics = getelementptr inbounds %"struct.OpenImageIO_v2_6_0::TypeDesc", ptr %this1, i32 0, i32 2
  %4 = load ptr, ptr %t.addr, align 8
  %vecsemantics4 = getelementptr inbounds %"struct.OpenImageIO_v2_6_0::TypeDesc", ptr %4, i32 0, i32 2
  %5 = load i8, ptr %vecsemantics4, align 2
  store i8 %5, ptr %vecsemantics, align 2
  %reserved = getelementptr inbounds %"struct.OpenImageIO_v2_6_0::TypeDesc", ptr %this1, i32 0, i32 3
  store i8 0, ptr %reserved, align 1
  %arraylen = getelementptr inbounds %"struct.OpenImageIO_v2_6_0::TypeDesc", ptr %this1, i32 0, i32 4
  %6 = load ptr, ptr %t.addr, align 8
  %arraylen5 = getelementptr inbounds %"struct.OpenImageIO_v2_6_0::TypeDesc", ptr %6, i32 0, i32 4
  %7 = load i32, ptr %arraylen5, align 4
  store i32 %7, ptr %arraylen, align 4
  ret void
}

; Function Attrs: mustprogress nounwind uwtable
define linkonce_odr hidden noundef zeroext i1 @_ZN18OpenImageIO_v2_6_0eqERKNS_8TypeDescENS0_8BASETYPEE(ptr noundef nonnull align 4 dereferenceable(8) %t, i32 noundef %b) #4 comdat {
entry:
  %t.addr = alloca ptr, align 8
  %b.addr = alloca i32, align 4
  store ptr %t, ptr %t.addr, align 8
  store i32 %b, ptr %b.addr, align 4
  %0 = load ptr, ptr %t.addr, align 8
  %basetype = getelementptr inbounds %"struct.OpenImageIO_v2_6_0::TypeDesc", ptr %0, i32 0, i32 0
  %1 = load i8, ptr %basetype, align 4
  %conv = zext i8 %1 to i32
  %2 = load i32, ptr %b.addr, align 4
  %cmp = icmp eq i32 %conv, %2
  br i1 %cmp, label %land.lhs.true, label %land.end

land.lhs.true:                                    ; preds = %entry
  %3 = load ptr, ptr %t.addr, align 8
  %aggregate = getelementptr inbounds %"struct.OpenImageIO_v2_6_0::TypeDesc", ptr %3, i32 0, i32 1
  %4 = load i8, ptr %aggregate, align 1
  %conv1 = zext i8 %4 to i32
  %cmp2 = icmp eq i32 %conv1, 1
  br i1 %cmp2, label %land.rhs, label %land.end

land.rhs:                                         ; preds = %land.lhs.true
  %5 = load ptr, ptr %t.addr, align 8
  %call = call noundef zeroext i1 @_ZNK18OpenImageIO_v2_6_08TypeDesc8is_arrayEv(ptr noundef nonnull align 4 dereferenceable(8) %5) #3
  %lnot = xor i1 %call, true
  br label %land.end

land.end:                                         ; preds = %land.rhs, %land.lhs.true, %entry
  %6 = phi i1 [ false, %land.lhs.true ], [ false, %entry ], [ %lnot, %land.rhs ]
  ret i1 %6
}

; Function Attrs: mustprogress uwtable
define noundef zeroext i1 @_ZN18OpenImageIO_v2_6_011ImageOutput15write_scanlinesEiiiNS_8TypeDescEPKvll(ptr noundef nonnull align 8 dereferenceable(184) %this, i32 noundef %ybegin, i32 noundef %yend, i32 noundef %z, ptr noundef %format, ptr noundef %data, i64 noundef %xstride, i64 noundef %ystride) unnamed_addr #6 align 2 {
entry:
  %this.addr = alloca ptr, align 8
  %ybegin.addr = alloca i32, align 4
  %yend.addr = alloca i32, align 4
  %z.addr = alloca i32, align 4
  %format.indirect_addr = alloca ptr, align 8
  %data.addr = alloca ptr, align 8
  %xstride.addr = alloca i64, align 8
  %ystride.addr = alloca i64, align 8
  %native_pixel_bytes = alloca i64, align 8
  %zstride = alloca i64, align 8
  %agg.tmp = alloca %"struct.OpenImageIO_v2_6_0::TypeDesc", align 4
  %ok = alloca i8, align 1
  %y = alloca i32, align 4
  %agg.tmp7 = alloca %"struct.OpenImageIO_v2_6_0::TypeDesc", align 4
  store ptr %this, ptr %this.addr, align 8
  store i32 %ybegin, ptr %ybegin.addr, align 4
  store i32 %yend, ptr %yend.addr, align 4
  store i32 %z, ptr %z.addr, align 4
  store ptr %format, ptr %format.indirect_addr, align 8
  store ptr %data, ptr %data.addr, align 8
  store i64 %xstride, ptr %xstride.addr, align 8
  store i64 %ystride, ptr %ystride.addr, align 8
  %this1 = load ptr, ptr %this.addr, align 8
  %m_spec = getelementptr inbounds %"class.OpenImageIO_v2_6_0::ImageOutput", ptr %this1, i32 0, i32 1
  %call = call noundef i64 @_ZNK18OpenImageIO_v2_6_09ImageSpec11pixel_bytesEb(ptr noundef nonnull align 8 dereferenceable(160) %m_spec, i1 noundef zeroext true) #3
  store i64 %call, ptr %native_pixel_bytes, align 8
  %call2 = call noundef zeroext i1 @_ZN18OpenImageIO_v2_6_0eqERKNS_8TypeDescENS0_8BASETYPEE(ptr noundef nonnull align 4 dereferenceable(8) %format, i32 noundef 0) #3
  br i1 %call2, label %land.lhs.true, label %if.end

land.lhs.true:                                    ; preds = %entry
  %0 = load i64, ptr %xstride.addr, align 8
  %cmp = icmp eq i64 %0, -9223372036854775808
  br i1 %cmp, label %if.then, label %if.end

if.then:                                          ; preds = %land.lhs.true
  %1 = load i64, ptr %native_pixel_bytes, align 8
  store i64 %1, ptr %xstride.addr, align 8
  br label %if.end

if.end:                                           ; preds = %if.then, %land.lhs.true, %entry
  store i64 -9223372036854775808, ptr %zstride, align 8
  call void @_ZN18OpenImageIO_v2_6_08TypeDescC2ERKS0_(ptr noundef nonnull align 4 dereferenceable(8) %agg.tmp, ptr noundef nonnull align 4 dereferenceable(8) %format) #3
  %m_spec4 = getelementptr inbounds %"class.OpenImageIO_v2_6_0::ImageOutput", ptr %this1, i32 0, i32 1
  %nchannels = getelementptr inbounds %"class.OpenImageIO_v2_6_0::ImageSpec", ptr %m_spec4, i32 0, i32 15
  %2 = load i32, ptr %nchannels, align 4
  %m_spec5 = getelementptr inbounds %"class.OpenImageIO_v2_6_0::ImageOutput", ptr %this1, i32 0, i32 1
  %width = getelementptr inbounds %"class.OpenImageIO_v2_6_0::ImageSpec", ptr %m_spec5, i32 0, i32 3
  %3 = load i32, ptr %width, align 4
  %4 = load i32, ptr %yend.addr, align 4
  %5 = load i32, ptr %ybegin.addr, align 4
  %sub = sub nsw i32 %4, %5
  call void @_ZN18OpenImageIO_v2_6_09ImageSpec11auto_strideERlS1_S1_NS_8TypeDescEiii(ptr noundef nonnull align 8 dereferenceable(8) %xstride.addr, ptr noundef nonnull align 8 dereferenceable(8) %ystride.addr, ptr noundef nonnull align 8 dereferenceable(8) %zstride, ptr noundef %agg.tmp, i32 noundef %2, i32 noundef %3, i32 noundef %sub) #3
  store i8 1, ptr %ok, align 1
  %6 = load i32, ptr %ybegin.addr, align 4
  store i32 %6, ptr %y, align 4
  br label %for.cond

for.cond:                                         ; preds = %for.inc, %if.end
  %7 = load i8, ptr %ok, align 1
  %tobool = trunc i8 %7 to i1
  br i1 %tobool, label %land.rhs, label %land.end

land.rhs:                                         ; preds = %for.cond
  %8 = load i32, ptr %y, align 4
  %9 = load i32, ptr %yend.addr, align 4
  %cmp6 = icmp slt i32 %8, %9
  br label %land.end

land.end:                                         ; preds = %land.rhs, %for.cond
  %10 = phi i1 [ false, %for.cond ], [ %cmp6, %land.rhs ]
  br i1 %10, label %for.body, label %for.end

for.body:                                         ; preds = %land.end
  %11 = load i32, ptr %y, align 4
  %12 = load i32, ptr %z.addr, align 4
  call void @_ZN18OpenImageIO_v2_6_08TypeDescC2ERKS0_(ptr noundef nonnull align 4 dereferenceable(8) %agg.tmp7, ptr noundef nonnull align 4 dereferenceable(8) %format) #3
  %13 = load ptr, ptr %data.addr, align 8
  %14 = load i64, ptr %xstride.addr, align 8
  %vtable = load ptr, ptr %this1, align 8
  %vfn = getelementptr inbounds ptr, ptr %vtable, i64 7
  %15 = load ptr, ptr %vfn, align 8
  %call8 = call noundef zeroext i1 %15(ptr noundef nonnull align 8 dereferenceable(184) %this1, i32 noundef %11, i32 noundef %12, ptr noundef %agg.tmp7, ptr noundef %13, i64 noundef %14)
  %conv = zext i1 %call8 to i32
  %16 = load i8, ptr %ok, align 1
  %tobool9 = trunc i8 %16 to i1
  %conv10 = zext i1 %tobool9 to i32
  %and = and i32 %conv10, %conv
  %tobool11 = icmp ne i32 %and, 0
  %frombool = zext i1 %tobool11 to i8
  store i8 %frombool, ptr %ok, align 1
  %17 = load ptr, ptr %data.addr, align 8
  %18 = load i64, ptr %ystride.addr, align 8
  %add.ptr = getelementptr inbounds i8, ptr %17, i64 %18
  store ptr %add.ptr, ptr %data.addr, align 8
  br label %for.inc

for.inc:                                          ; preds = %for.body
  %19 = load i32, ptr %y, align 4
  %inc = add nsw i32 %19, 1
  store i32 %inc, ptr %y, align 4
  br label %for.cond, !llvm.loop !4

for.end:                                          ; preds = %land.end
  %20 = load i8, ptr %ok, align 1
  %tobool12 = trunc i8 %20 to i1
  ret i1 %tobool12
}