; Function Attrs: mustprogress uwtable
define noundef zeroext i1 @_ZN18OpenImageIO_v2_6_011ImageOutput15write_scanlinesEiiiNS_8TypeDescEPKvll(ptr noundef nonnull align 8 dereferenceable(184) %this, i32 noundef %ybegin, i32 noundef %yend, i32 noundef %z, ptr nocapture noundef readonly %format, ptr noundef %data, i64 noundef %xstride, i64 noundef %ystride) unnamed_addr #5 align 2 {
entry:
  %agg.tmp = alloca %"struct.OpenImageIO_v2_6_0::TypeDesc", align 4
  %agg.tmp7 = alloca %"struct.OpenImageIO_v2_6_0::TypeDesc", align 4
  %m_spec = getelementptr inbounds i8, ptr %this, i64 8
  %call = tail call noundef i64 @_ZNK18OpenImageIO_v2_6_09ImageSpec11pixel_bytesEb(ptr noundef nonnull align 8 dereferenceable(160) %m_spec, i1 noundef zeroext true) #25
  %0 = load i8, ptr %format, align 4
  %cmp.i = icmp eq i8 %0, 0
  %aggregate.i = getelementptr inbounds i8, ptr %format, i64 1
  %1 = load i8, ptr %aggregate.i, align 1
  %cmp2.i = icmp eq i8 %1, 1
  %or.cond.i = select i1 %cmp.i, i1 %cmp2.i, i1 false
  %arraylen.i.i = getelementptr inbounds i8, ptr %format, i64 4
  %2 = load i32, ptr %arraylen.i.i, align 4
  %cmp.i.not.i = icmp eq i32 %2, 0
  %3 = select i1 %or.cond.i, i1 %cmp.i.not.i, i1 false
  %cmp = icmp eq i64 %xstride, -9223372036854775808
  %or.cond = and i1 %cmp, %3
  %spec.select = select i1 %or.cond, i64 %call, i64 %xstride
  store i8 %0, ptr %agg.tmp, align 4
  %aggregate.i8 = getelementptr inbounds i8, ptr %agg.tmp, i64 1
  store i8 %1, ptr %aggregate.i8, align 1
  %vecsemantics.i = getelementptr inbounds i8, ptr %agg.tmp, i64 2
  %vecsemantics4.i = getelementptr inbounds i8, ptr %format, i64 2
  %4 = load i8, ptr %vecsemantics4.i, align 2
  store i8 %4, ptr %vecsemantics.i, align 2
  %reserved.i = getelementptr inbounds i8, ptr %agg.tmp, i64 3
  store i8 0, ptr %reserved.i, align 1
  %arraylen.i = getelementptr inbounds i8, ptr %agg.tmp, i64 4
  store i32 %2, ptr %arraylen.i, align 4
  %nchannels = getelementptr inbounds i8, ptr %this, i64 68
  %5 = load i32, ptr %nchannels, align 4
  %width = getelementptr inbounds i8, ptr %this, i64 20
  %6 = load i32, ptr %width, align 4
  %call.i.i.i = call noundef i64 @_ZNK18OpenImageIO_v2_6_08TypeDesc8basesizeEv(ptr noundef nonnull align 4 dereferenceable(8) %agg.tmp) #25
  %cmp.i.i = icmp eq i64 %spec.select, -9223372036854775808
  br i1 %cmp.i.i, label %if.then.i.i, label %if.end.i.i

if.then.i.i:                                      ; preds = %entry
  %conv.i.i.i = zext i8 %1 to i64
  %narrow.i.i = call i32 @llvm.smax.i32(i32 %2, i32 1)
  %spec.select.i.i = zext nneg i32 %narrow.i.i to i64
  %conv.i.i = sext i32 %5 to i64
  %mul.i.i.i = mul nuw nsw i64 %spec.select.i.i, %conv.i.i.i
  %mul.i.i = mul i64 %mul.i.i.i, %conv.i.i
  %mul.i1.i = mul i64 %mul.i.i, %call.i.i.i
  br label %if.end.i.i

if.end.i.i:                                       ; preds = %if.then.i.i, %entry
  %xstride.addr.1 = phi i64 [ %mul.i1.i, %if.then.i.i ], [ %spec.select, %entry ]
  %cmp1.i.i = icmp eq i64 %ystride, -9223372036854775808
  %conv3.i.i = sext i32 %6 to i64
  %mul4.i.i = mul nsw i64 %xstride.addr.1, %conv3.i.i
  %ystride.addr.0 = select i1 %cmp1.i.i, i64 %mul4.i.i, i64 %ystride
  %cmp620 = icmp slt i32 %ybegin, %yend
  br i1 %cmp620, label %for.body.lr.ph, label %for.end

for.body.lr.ph:                                   ; preds = %if.end.i.i
  %aggregate.i10 = getelementptr inbounds i8, ptr %agg.tmp7, i64 1
  %vecsemantics.i12 = getelementptr inbounds i8, ptr %agg.tmp7, i64 2
  %reserved.i14 = getelementptr inbounds i8, ptr %agg.tmp7, i64 3
  %arraylen.i15 = getelementptr inbounds i8, ptr %agg.tmp7, i64 4
  br label %for.body

for.body:                                         ; preds = %for.body.lr.ph, %for.body
  %y.022 = phi i32 [ %ybegin, %for.body.lr.ph ], [ %inc, %for.body ]
  %data.addr.021 = phi ptr [ %data, %for.body.lr.ph ], [ %add.ptr, %for.body ]
  %7 = load i8, ptr %format, align 4
  store i8 %7, ptr %agg.tmp7, align 4
  %8 = load i8, ptr %aggregate.i, align 1
  store i8 %8, ptr %aggregate.i10, align 1
  %9 = load i8, ptr %vecsemantics4.i, align 2
  store i8 %9, ptr %vecsemantics.i12, align 2
  store i8 0, ptr %reserved.i14, align 1
  %10 = load i32, ptr %arraylen.i.i, align 4
  store i32 %10, ptr %arraylen.i15, align 4
  %vtable = load ptr, ptr %this, align 8
  %vfn = getelementptr inbounds i8, ptr %vtable, i64 56
  %11 = load ptr, ptr %vfn, align 8
  %call8 = call noundef zeroext i1 %11(ptr noundef nonnull align 8 dereferenceable(184) %this, i32 noundef %y.022, i32 noundef %z, ptr noundef nonnull %agg.tmp7, ptr noundef %data.addr.021, i64 noundef %xstride.addr.1)
  %add.ptr = getelementptr inbounds i8, ptr %data.addr.021, i64 %ystride.addr.0
  %inc = add nsw i32 %y.022, 1
  %cmp6 = icmp slt i32 %inc, %yend
  %12 = select i1 %call8, i1 %cmp6, i1 false
  br i1 %12, label %for.body, label %for.end, !llvm.loop !7

for.end:                                          ; preds = %for.body, %if.end.i.i
  %ok.0.lcssa = phi i1 [ true, %if.end.i.i ], [ %call8, %for.body ]
  ret i1 %ok.0.lcssa
}